(lp0
(I1296649555
S'BEOS:PREF_APP'
p1
S'\000'
p2
tp3
a(I1296646990
S'BEOS:M:STD_ICON'
p4
S'\377\377\377\377\377\377\377\377\377\377\377\377\377\377\377\377\377\377\377\377\377\377\377\377\377\37799\377\377\377\377\377\377\377\37799\377\377\377\37799\377\377\377\377\377\377\377\37799\377\377\377\37799\377\377\377\377\377\377\377\377999\377\377\37799\377\377\377\377\377\377\377\377\37799\377\377\37799\377\377\377\377\377\377\377\377\37799\377\377\37799\377\377\377\377\377\377\377\377\377999\377\37799\377\377\377\377\377\377\377\377\377\37799\377\37799\377\377\377\377\377\377\377\377\377\377999999\377\377\377\377\377\377\377\3779999\320\32099\377\377\377\377\377\377\377\377999999999\377\377\377\377\377\37799\3209999999\377\377\377\377\377\377999\320\320\320\320999\377\377\377\377\377\377999\320\320\320\320999\377\377\377\377\377\377\3779\320\320\320\320999\377\377\377\377'
p5
tp6
a(I1296649555
S'BEOS:APP_SIG'
p7
S'application/x-vnd.Be-HelloWorldSample\000'
p8
tp9
a(I1095782470
S'BEOS:APP_FLAGS'
p10
S'\000\000\000\000'
p11
tp12
a(I1095782486
S'BEOS:APP_VERSION'
p13
S'\000\000\000\000\000\000\000\000\000\000\000\000\000\000\000\000\000\000\000\000\000\000\000\000\000\000\000\000\000\000\000\000\000\000\000\000\000\000\000\000\000\000\000\000\000\000\000\000\000\000\000\000\000\000\000\000\000\000\000\000\000\000\000\000\000\000\000\000\000\000\000\000\000\000\000\000\000\000\000\000\000\000\000\000\000\000\000\000\000\000\000\000\000\000\000\000\000\000\000\000\000\000\000\000\000\000\000\000\000\000\000\000\000\000\000\000\000\000\000\000\000\000\000\000\000\000\000\000\000\000\000\000\000\000\000\000\000\000\000\000\000\000\000\000\000\000\000\000\000\000\000\000\000\000\000\000\000\000\000\000\000\000\000\000\000\000\000\000\000\000\000\000\000\000\000\000\000\000\000\000\000\000\000\000\000\000\000\000\000\000\000\000\000\000\000\000\000\000\000\000\000\000\000\000\000\000\000\000\000\000\000\000\000\000\000\000\000\000\000\000\000\000\000\000\000\000\000\000\000\000\000\000\000\000\000\000\000\000\000\000\000\000\000\000\000\000\000\000\000\000\000\000\000\000\000\000\000\000\000\000\000\000\000\000\000\000\000\000\000\000\000\000\000\000\000\000\000\000\000\000\000\000\000\000\000\000\000\000\000\000\000\000\000\000\000\000\000\000\000\000\000\000\000\000\000\000\000\000\000\000\000\000\000\000\000\000\000\000\000\000\000\000\000\000\000\000\000\000\000\000\000\000\000\000\000\000\000\000\000\000\000\000\000\000\000\000\000\000\000\000\000\000\000\000\000\000\000\000\000\000\000\000\000\000\000\000\000\000\000\000\000\000\000\000\000\000\000\000\000\000\000\000\000\000\000\000\000\000\000\000\000\000\000\000\000\000\000\000\000\000\000\000\000\000\000\000\000\000\000\000\000\000\000\000\000\000\000\000\000\000\000\000\000\000\000\000\000\000\000\000\000\000\000\000\000\000\000\000\000\000\000\000\000\000\000\000\000\000\000\000\000\000\000\000\000\000\000\000\000\000\000\000\000\000\000\000\000\000\000\000\000\000\000\000\000\000\000\000\000\000\000\000\000\000\000\000\000\000\000\000\000\000\000\000\000\000\000\000\000\000\000\000\000\000\000\000\000\000\000\000\000\000\000\000\000\000\000\000\000\000\000\000\000\000\000\000\000\000\000\000\000\000\000\000\000\000\000\000\000\000\000\000\000\000\000\000\000\000\000\000\000\000\000\000\000\000\000\000\000\000\000\000\000\000\000\000\000\000\000\000\000\000\000\000\000\000\000\000\000\000\000\000\000\000\000\000\000\000\000\000\000\000\000\000\000\000\000\000\000\000\000\000\000\000\000\000\000\000\000\000\000\000\000\000\000\000\000\000\000\000\000\000\000\000\000\000\000\000\000\000\000\000\000\000\000\000\000\000\000\000\000\000\000\000\000\000\000\000\000\000\000\000\000\000\000\000\000\000\000\000\000\000\000\000\000\000\000\000\000\000\000\000\000\000\000\000\000\000\000\000'
p14
tp15
a(I1229147982
S'BEOS:L:STD_ICON'
p16
S'\377\377\377\377\377\377\377\377\377\377\377\377\377\377\377\377\377\377\377\377\377\377\377\377\377\377\377\377\377\377\377\377\377\377\377\377\377\377\377\377\377\377\377\377\377\377\377\377\377\377\377\377\37799\377\377\377\377\377\377\377\377\377\377\377\377\377\377\377\377\377\377\377\377\377\377\377\377\377\377\377\377\377999\377\377\377\377\377\377\377\377\377\377\377\377\377\377\377\377\377\377\377\377\377\377\377\377\377\377\377\377\3779999\377\377\377\377\377\377\377\377\377\377\377\377\377\377\377\377999\377\377\377\377\377\377\377\377\3779999\377\377\377\377\377\377\377\377\377\377\377\377\377\377\3779999\377\377\377\377\377\377\377\377\3779999\377\377\377\377\377\377\377\377\377\377\377\377\377\377\37799999\377\377\377\377\377\377\377\3779999\377\377\377\377\377\377\377\377\377\377\377\377\377\377\377\3779999\377\377\377\377\377\377\377\3779999\377\377\377\377\377\377\377\377\377\377\377\377\377\377\377\37799999\377\377\377\377\377\377\3779999\377\377\377\377\377\377\377\377\377\377\377\377\377\377\377\37799999\377\377\377\377\377\377\3779999\377\377\377\377\377\377\377\377\377\377\377\377\377\377\377\377\37799999\377\377\377\377\377\3779999\377\377\377\377\377\377\377\377\377\377\377\377\377\377\377\377\37799999\377\377\377\377\377\3779999\377\377\377\377\377\377\377\377\377\377\377\377\377\377\377\377\377\3779999\377\377\377\377\377\3779999\377\377\377\377\377\377\377\377\377\377\377\377\377\377\377\377\377\37799999\377\377\377\377\3779999\377\377\377\377\377\377\377\377\377\377\377\377\377\377\377\377\377\377\3779999\377\377\377\377\3779999\377\377\377\377\377\377\377\377\377\377\377\377\377\377\377\377\377\377\37799999\377\377\377\3779999\377\377\377\377\377\377\377\377\377\377\377\377\377\377\377\377\377\377\377\3779999\377\377\377\3779999\377\377\377\377\377\377\377\377\377\377\377\377\377\377\377\377\377\377\377\37799999\377\37799999\377\377\377\377\377\377\377\377\377\377\377\377\377\377\377\377\377\377\377\377\3779999\377999999\377\377\377\377\377\377\377\377\377\377\377\377\377\377\377\377\377\377\377\377\37799999999999\377\377\377\377\377\377\377\377\377\377\377\377\377\377\377\377\377\377\377\377\37799999999999\377\377\377\377\377\377\377\377\377\377\377\377\377\377\377\377\377\377\377999\320999999999\377\377\377\377\377\377\377\377\377\377\377\377\377\377\377\377\377\377\377\3209999\320\320\320\320\320\32099\377\377\377\377\377\377\377\377\377\377\377\377\377\377\377\377\377\3779\32099999999999999\377\377\377\377\377\377\377\377\377\377\377\377\377\377\37799\320\32099999999999999\377\377\377\377\377\377\377\377\377\377\377\377\377\3779999\320\320\320\320\320\320\320\320\32099999\377\377\377\377\377\377\377\377\377\377\377\377\377\3779999999\320\320\320\320\320\32099999\377\377\377\377\377\377\377\377\377\377\377\377\377\37799999999\320\320\320\320999999\377\377\377\377\377\377\377\377\377\377\377\377\377999\320\320999\320\320\320\3209999999\377\377\377\377\377\377\377\377\377\377\377\377\3779999\320\320\320\320\320\320\320\3209999999\377\377\377\377\377\377\377\377\377\377\377\377\377\37799999\320\320\320\32099999999\377\377\377\377\377\377\377\377\377\377\377\377\377\377\3779\320\320\320\320\320\320\320\3209999999\377\377\377\377\377\377\377'
p17
tp18
a.